target datalayout = "e-m:e-p270:32:32-p271:32:32-p272:64:64-i64:64-i128:128-f80:128-n8:16:32:64-S128"
target triple = "x86_64-pc-linux-gnu"

%struct.AudioPsyClipContext = type { ptr, double, double, double, double, i32, i32, i32, ptr, ptr, i32, i32, i32, i32, i32, ptr, ptr, ptr, ptr, ptr, ptr, ptr, ptr, ptr, ptr, ptr, ptr, ptr, ptr, ptr, ptr, ptr, ptr }

; Function Attrs: nounwind uwtable
define internal void @generate_spread_table(ptr noundef %0) #2 {
  %2 = alloca ptr, align 8
  %3 = alloca i32, align 4
  %4 = alloca i32, align 4
  %5 = alloca i32, align 4
  %6 = alloca float, align 4
  %7 = alloca i32, align 4
  %8 = alloca i32, align 4
  %9 = alloca i32, align 4
  %10 = alloca i32, align 4
  %11 = alloca i32, align 4
  %12 = alloca float, align 4
  %13 = alloca float, align 4
  %14 = alloca i32, align 4
  %15 = alloca i32, align 4
  store ptr %0, ptr %2, align 8, !tbaa !22
  call void @llvm.lifetime.start.p0(i64 4, ptr %3) #9
  store i32 0, ptr %3, align 4, !tbaa !24
  call void @llvm.lifetime.start.p0(i64 4, ptr %4) #9
  store i32 0, ptr %4, align 4, !tbaa !24
  call void @llvm.lifetime.start.p0(i64 4, ptr %5) #9
  store i32 1, ptr %5, align 4, !tbaa !24
  br label %16

16:                                               ; preds = %211, %1
  %17 = load i32, ptr %4, align 4, !tbaa !24
  %18 = load ptr, ptr %2, align 8, !tbaa !22
  %19 = getelementptr inbounds nuw %struct.AudioPsyClipContext, ptr %18, i32 0, i32 10
  %20 = load i32, ptr %19, align 8, !tbaa !56
  %21 = icmp slt i32 %17, %20
  br i1 %21, label %22, label %215

22:                                               ; preds = %16
  call void @llvm.lifetime.start.p0(i64 4, ptr %6) #9
  store float 0.000000e+00, ptr %6, align 4, !tbaa !52
  call void @llvm.lifetime.start.p0(i64 4, ptr %7) #9
  %23 = load i32, ptr %3, align 4, !tbaa !24
  %24 = load ptr, ptr %2, align 8, !tbaa !22
  %25 = getelementptr inbounds nuw %struct.AudioPsyClipContext, ptr %24, i32 0, i32 10
  %26 = load i32, ptr %25, align 8, !tbaa !56
  %27 = mul nsw i32 %23, %26
  store i32 %27, ptr %7, align 4, !tbaa !24
  call void @llvm.lifetime.start.p0(i64 4, ptr %8) #9
  %28 = load i32, ptr %4, align 4, !tbaa !24
  %29 = mul nsw i32 %28, 3
  %30 = sdiv i32 %29, 4
  store i32 %30, ptr %8, align 4, !tbaa !24
  call void @llvm.lifetime.start.p0(i64 4, ptr %9) #9
  %31 = load ptr, ptr %2, align 8, !tbaa !22
  %32 = getelementptr inbounds nuw %struct.AudioPsyClipContext, ptr %31, i32 0, i32 10
  %33 = load i32, ptr %32, align 8, !tbaa !56
  %34 = load i32, ptr %4, align 4, !tbaa !24
  %35 = add nsw i32 %34, 1
  %36 = mul nsw i32 %35, 4
  %37 = add nsw i32 %36, 2
  %38 = sdiv i32 %37, 3
  %39 = icmp sgt i32 %33, %38
  br i1 %39, label %40, label %46

40:                                               ; preds = %22
  %41 = load i32, ptr %4, align 4, !tbaa !24
  %42 = add nsw i32 %41, 1
  %43 = mul nsw i32 %42, 4
  %44 = add nsw i32 %43, 2
  %45 = sdiv i32 %44, 3
  br label %50

46:                                               ; preds = %22
  %47 = load ptr, ptr %2, align 8, !tbaa !22
  %48 = getelementptr inbounds nuw %struct.AudioPsyClipContext, ptr %47, i32 0, i32 10
  %49 = load i32, ptr %48, align 8, !tbaa !56
  br label %50

50:                                               ; preds = %46, %40
  %51 = phi i32 [ %45, %40 ], [ %49, %46 ]
  store i32 %51, ptr %9, align 4, !tbaa !24
  call void @llvm.lifetime.start.p0(i64 4, ptr %10) #9
  call void @llvm.lifetime.start.p0(i64 4, ptr %11) #9
  %52 = load i32, ptr %8, align 4, !tbaa !24
  store i32 %52, ptr %11, align 4, !tbaa !24
  br label %53

53:                                               ; preds = %122, %50
  %54 = load i32, ptr %11, align 4, !tbaa !24
  %55 = load i32, ptr %9, align 4, !tbaa !24
  %56 = icmp slt i32 %54, %55
  br i1 %56, label %58, label %57

57:                                               ; preds = %53
  call void @llvm.lifetime.end.p0(i64 4, ptr %11) #9
  br label %125

58:                                               ; preds = %53
  call void @llvm.lifetime.start.p0(i64 4, ptr %12) #9
  %59 = load i32, ptr %11, align 4, !tbaa !24
  %60 = sitofp i32 %59 to float
  %61 = fadd nsz float %60, 5.000000e-01
  %62 = load i32, ptr %4, align 4, !tbaa !24
  %63 = sitofp i32 %62 to float
  %64 = fadd nsz float %63, 5.000000e-01
  %65 = fdiv nsz float %61, %64
  %66 = call nsz float @llvm.log.f32(float %65)
  %67 = fcmp nsz oge float %66, 0.000000e+00
  br i1 %67, label %68, label %77

68:                                               ; preds = %58
  %69 = load i32, ptr %11, align 4, !tbaa !24
  %70 = sitofp i32 %69 to float
  %71 = fadd nsz float %70, 5.000000e-01
  %72 = load i32, ptr %4, align 4, !tbaa !24
  %73 = sitofp i32 %72 to float
  %74 = fadd nsz float %73, 5.000000e-01
  %75 = fdiv nsz float %71, %74
  %76 = call nsz float @llvm.log.f32(float %75)
  br label %87

77:                                               ; preds = %58
  %78 = load i32, ptr %11, align 4, !tbaa !24
  %79 = sitofp i32 %78 to float
  %80 = fadd nsz float %79, 5.000000e-01
  %81 = load i32, ptr %4, align 4, !tbaa !24
  %82 = sitofp i32 %81 to float
  %83 = fadd nsz float %82, 5.000000e-01
  %84 = fdiv nsz float %80, %83
  %85 = call nsz float @llvm.log.f32(float %84)
  %86 = fneg nsz float %85
  br label %87

87:                                               ; preds = %77, %68
  %88 = phi nsz float [ %76, %68 ], [ %86, %77 ]
  store float %88, ptr %12, align 4, !tbaa !52
  call void @llvm.lifetime.start.p0(i64 4, ptr %13) #9
  %89 = load i32, ptr %11, align 4, !tbaa !24
  %90 = load i32, ptr %4, align 4, !tbaa !24
  %91 = icmp sge i32 %89, %90
  br i1 %91, label %92, label %97

92:                                               ; preds = %87
  %93 = load float, ptr %12, align 4, !tbaa !52
  %94 = fneg nsz float %93
  %95 = fmul nsz float %94, 4.000000e+01
  %96 = call nsz float @llvm.exp.f32(float %95)
  store float %96, ptr %13, align 4, !tbaa !52
  br label %102

97:                                               ; preds = %87
  %98 = load float, ptr %12, align 4, !tbaa !52
  %99 = fneg nsz float %98
  %100 = fmul nsz float %99, 8.000000e+01
  %101 = call nsz float @llvm.exp.f32(float %100)
  store float %101, ptr %13, align 4, !tbaa !52
  br label %102

102:                                              ; preds = %97, %92
  %103 = load float, ptr %13, align 4, !tbaa !52
  %104 = load float, ptr %6, align 4, !tbaa !52
  %105 = fadd nsz float %104, %103
  store float %105, ptr %6, align 4, !tbaa !52
  %106 = load float, ptr %13, align 4, !tbaa !52
  %107 = load ptr, ptr %2, align 8, !tbaa !22
  %108 = getelementptr inbounds nuw %struct.AudioPsyClipContext, ptr %107, i32 0, i32 19
  %109 = load ptr, ptr %108, align 8, !tbaa !68
  %110 = load i32, ptr %7, align 4, !tbaa !24
  %111 = load ptr, ptr %2, align 8, !tbaa !22
  %112 = getelementptr inbounds nuw %struct.AudioPsyClipContext, ptr %111, i32 0, i32 10
  %113 = load i32, ptr %112, align 8, !tbaa !56
  %114 = sdiv i32 %113, 2
  %115 = add nsw i32 %110, %114
  %116 = load i32, ptr %11, align 4, !tbaa !24
  %117 = add nsw i32 %115, %116
  %118 = load i32, ptr %4, align 4, !tbaa !24
  %119 = sub nsw i32 %117, %118
  %120 = sext i32 %119 to i64
  %121 = getelementptr inbounds float, ptr %109, i64 %120
  store float %106, ptr %121, align 4, !tbaa !52
  call void @llvm.lifetime.end.p0(i64 4, ptr %13) #9
  call void @llvm.lifetime.end.p0(i64 4, ptr %12) #9
  br label %122

122:                                              ; preds = %102
  %123 = load i32, ptr %11, align 4, !tbaa !24
  %124 = add nsw i32 %123, 1
  store i32 %124, ptr %11, align 4, !tbaa !24
  br label %53, !llvm.loop !81

125:                                              ; preds = %57
  call void @llvm.lifetime.start.p0(i64 4, ptr %14) #9
  %126 = load i32, ptr %8, align 4, !tbaa !24
  store i32 %126, ptr %14, align 4, !tbaa !24
  br label %127

127:                                              ; preds = %151, %125
  %128 = load i32, ptr %14, align 4, !tbaa !24
  %129 = load i32, ptr %9, align 4, !tbaa !24
  %130 = icmp slt i32 %128, %129
  br i1 %130, label %132, label %131

131:                                              ; preds = %127
  call void @llvm.lifetime.end.p0(i64 4, ptr %14) #9
  br label %154

132:                                              ; preds = %127
  %133 = load float, ptr %6, align 4, !tbaa !52
  %134 = load ptr, ptr %2, align 8, !tbaa !22
  %135 = getelementptr inbounds nuw %struct.AudioPsyClipContext, ptr %134, i32 0, i32 19
  %136 = load ptr, ptr %135, align 8, !tbaa !68
  %137 = load i32, ptr %7, align 4, !tbaa !24
  %138 = load ptr, ptr %2, align 8, !tbaa !22
  %139 = getelementptr inbounds nuw %struct.AudioPsyClipContext, ptr %138, i32 0, i32 10
  %140 = load i32, ptr %139, align 8, !tbaa !56
  %141 = sdiv i32 %140, 2
  %142 = add nsw i32 %137, %141
  %143 = load i32, ptr %14, align 4, !tbaa !24
  %144 = add nsw i32 %142, %143
  %145 = load i32, ptr %4, align 4, !tbaa !24
  %146 = sub nsw i32 %144, %145
  %147 = sext i32 %146 to i64
  %148 = getelementptr inbounds float, ptr %136, i64 %147
  %149 = load float, ptr %148, align 4, !tbaa !52
  %150 = fdiv nsz float %149, %133
  store float %150, ptr %148, align 4, !tbaa !52
  br label %151

151:                                              ; preds = %132
  %152 = load i32, ptr %14, align 4, !tbaa !24
  %153 = add nsw i32 %152, 1
  store i32 %153, ptr %14, align 4, !tbaa !24
  br label %127, !llvm.loop !82

154:                                              ; preds = %131
  %155 = load i32, ptr %8, align 4, !tbaa !24
  %156 = load i32, ptr %4, align 4, !tbaa !24
  %157 = sub nsw i32 %155, %156
  %158 = load ptr, ptr %2, align 8, !tbaa !22
  %159 = getelementptr inbounds nuw %struct.AudioPsyClipContext, ptr %158, i32 0, i32 16
  %160 = load ptr, ptr %159, align 8, !tbaa !69
  %161 = load i32, ptr %3, align 4, !tbaa !24
  %162 = sext i32 %161 to i64
  %163 = getelementptr inbounds [2 x i32], ptr %160, i64 %162
  %164 = getelementptr inbounds [2 x i32], ptr %163, i64 0, i64 0
  store i32 %157, ptr %164, align 4, !tbaa !24
  %165 = load i32, ptr %9, align 4, !tbaa !24
  %166 = load i32, ptr %4, align 4, !tbaa !24
  %167 = sub nsw i32 %165, %166
  %168 = load ptr, ptr %2, align 8, !tbaa !22
  %169 = getelementptr inbounds nuw %struct.AudioPsyClipContext, ptr %168, i32 0, i32 16
  %170 = load ptr, ptr %169, align 8, !tbaa !69
  %171 = load i32, ptr %3, align 4, !tbaa !24
  %172 = sext i32 %171 to i64
  %173 = getelementptr inbounds [2 x i32], ptr %170, i64 %172
  %174 = getelementptr inbounds [2 x i32], ptr %173, i64 0, i64 1
  store i32 %167, ptr %174, align 4, !tbaa !24
  %175 = load i32, ptr %4, align 4, !tbaa !24
  %176 = icmp sle i32 %175, 1
  br i1 %176, label %177, label %180

177:                                              ; preds = %154
  %178 = load i32, ptr %4, align 4, !tbaa !24
  %179 = add nsw i32 %178, 1
  store i32 %179, ptr %10, align 4, !tbaa !24
  br label %193

180:                                              ; preds = %154
  %181 = load i32, ptr %4, align 4, !tbaa !24
  %182 = load i32, ptr %4, align 4, !tbaa !24
  %183 = sub nsw i32 %182, 1
  %184 = and i32 %181, %183
  %185 = icmp eq i32 %184, 0
  br i1 %185, label %186, label %189

186:                                              ; preds = %180
  %187 = load i32, ptr %4, align 4, !tbaa !24
  %188 = sdiv i32 %187, 2
  store i32 %188, ptr %5, align 4, !tbaa !24
  br label %189

189:                                              ; preds = %186, %180
  %190 = load i32, ptr %4, align 4, !tbaa !24
  %191 = load i32, ptr %5, align 4, !tbaa !24
  %192 = add nsw i32 %190, %191
  store i32 %192, ptr %10, align 4, !tbaa !24
  br label %193

193:                                              ; preds = %189, %177
  call void @llvm.lifetime.start.p0(i64 4, ptr %15) #9
  %194 = load i32, ptr %4, align 4, !tbaa !24
  store i32 %194, ptr %15, align 4, !tbaa !24
  br label %195

195:                                              ; preds = %208, %193
  %196 = load i32, ptr %15, align 4, !tbaa !24
  %197 = load i32, ptr %10, align 4, !tbaa !24
  %198 = icmp slt i32 %196, %197
  br i1 %198, label %200, label %199

199:                                              ; preds = %195
  call void @llvm.lifetime.end.p0(i64 4, ptr %15) #9
  br label %211

200:                                              ; preds = %195
  %201 = load i32, ptr %3, align 4, !tbaa !24
  %202 = load ptr, ptr %2, align 8, !tbaa !22
  %203 = getelementptr inbounds nuw %struct.AudioPsyClipContext, ptr %202, i32 0, i32 15
  %204 = load ptr, ptr %203, align 8, !tbaa !70
  %205 = load i32, ptr %15, align 4, !tbaa !24
  %206 = sext i32 %205 to i64
  %207 = getelementptr inbounds i32, ptr %204, i64 %206
  store i32 %201, ptr %207, align 4, !tbaa !24
  br label %208

208:                                              ; preds = %200
  %209 = load i32, ptr %15, align 4, !tbaa !24
  %210 = add nsw i32 %209, 1
  store i32 %210, ptr %15, align 4, !tbaa !24
  br label %195, !llvm.loop !83

211:                                              ; preds = %199
  %212 = load i32, ptr %10, align 4, !tbaa !24
  store i32 %212, ptr %4, align 4, !tbaa !24
  %213 = load i32, ptr %3, align 4, !tbaa !24
  %214 = add nsw i32 %213, 1
  store i32 %214, ptr %3, align 4, !tbaa !24
  call void @llvm.lifetime.end.p0(i64 4, ptr %10) #9
  call void @llvm.lifetime.end.p0(i64 4, ptr %9) #9
  call void @llvm.lifetime.end.p0(i64 4, ptr %8) #9
  call void @llvm.lifetime.end.p0(i64 4, ptr %7) #9
  call void @llvm.lifetime.end.p0(i64 4, ptr %6) #9
  br label %16, !llvm.loop !84

215:                                              ; preds = %16
  call void @llvm.lifetime.end.p0(i64 4, ptr %5) #9
  call void @llvm.lifetime.end.p0(i64 4, ptr %4) #9
  call void @llvm.lifetime.end.p0(i64 4, ptr %3) #9
  ret void
}