; Function Attrs: nofree norecurse nosync nounwind memory(readwrite, inaccessiblemem: none) uwtable
define internal fastcc void @generate_spread_table(ptr noundef readonly captures(none) %0) unnamed_addr #4 {
  %2 = getelementptr inbounds nuw i8, ptr %0, i64 72
  %3 = load i32, ptr %2, align 8, !tbaa !61
  %4 = icmp sgt i32 %3, 0
  br i1 %4, label %.lr.ph92, label %._crit_edge93

.lr.ph92:                                         ; preds = %1
  %5 = getelementptr inbounds nuw i8, ptr %0, i64 128
  %6 = getelementptr inbounds nuw i8, ptr %0, i64 104
  %7 = load ptr, ptr %6, align 8, !tbaa !76
  %8 = getelementptr inbounds nuw i8, ptr %0, i64 96
  br label %9

9:                                                ; preds = %.lr.ph92, %._crit_edge86
  %indvars.iv105 = phi i64 [ 0, %.lr.ph92 ], [ %indvars.iv.next106, %._crit_edge86 ]
  %10 = phi i32 [ %3, %.lr.ph92 ], [ %65, %._crit_edge86 ]
  %.069.neg90 = phi i32 [ 0, %.lr.ph92 ], [ %.069.neg, %._crit_edge86 ]
  %.06988 = phi i32 [ 0, %.lr.ph92 ], [ %.068, %._crit_edge86 ]
  %.07087 = phi i32 [ 1, %.lr.ph92 ], [ %.1, %._crit_edge86 ]
  %11 = trunc nuw nsw i64 %indvars.iv105 to i32
  %12 = mul nsw i32 %10, %11
  %13 = mul nsw i32 %.06988, 3
  %14 = sdiv i32 %13, 4
  %15 = add nsw i32 %.06988, 1
  %16 = shl nsw i32 %15, 2
  %17 = or disjoint i32 %16, 2
  %18 = sdiv i32 %17, 3
  %. = tail call i32 @llvm.smin.i32(i32 %10, i32 %18)
  %19 = icmp slt i32 %14, %.
  br i1 %19, label %.lr.ph, label %._crit_edge

.lr.ph:                                           ; preds = %9
  %invariant.op = add i32 %.069.neg90, %12
  %20 = sitofp i32 %.06988 to float
  %21 = fadd nsz float %20, 5.000000e-01
  %22 = load ptr, ptr %5, align 8, !tbaa !75
  %23 = sdiv i32 %10, 2
  %.reass = add i32 %23, %invariant.op
  %24 = sext i32 %14 to i64
  %25 = sext i32 %.06988 to i64
  %wide.trip.count = sext i32 %. to i64
  br label %29

.lr.ph82:                                         ; preds = %29
  %invariant.op79 = add i32 %.069.neg90, %12
  %26 = load ptr, ptr %5, align 8, !tbaa !75
  %27 = sdiv i32 %10, 2
  %.reass80 = add i32 %27, %invariant.op79
  %28 = sext i32 %14 to i64
  %wide.trip.count98 = sext i32 %. to i64
  br label %49

29:                                               ; preds = %.lr.ph, %29
  %indvars.iv = phi i64 [ %24, %.lr.ph ], [ %indvars.iv.next, %29 ]
  %.07177 = phi float [ 0.000000e+00, %.lr.ph ], [ %40, %29 ]
  %30 = trunc nsw i64 %indvars.iv to i32
  %31 = sitofp i32 %30 to float
  %32 = fadd nsz float %31, 5.000000e-01
  %33 = fdiv nsz float %32, %21
  %34 = tail call nsz float @llvm.log.f32(float %33)
  %35 = fcmp nsz ult float %34, 0.000000e+00
  %36 = fneg nsz float %34
  %37 = select nsz i1 %35, float %36, float %34
  %.not = icmp slt i64 %indvars.iv, %25
  %.110 = select i1 %.not, float -8.000000e+01, float -4.000000e+01
  %38 = fmul nsz float %37, %.110
  %39 = tail call nsz float @llvm.exp.f32(float %38)
  %40 = fadd nsz float %.07177, %39
  %41 = add i32 %.reass, %30
  %42 = sext i32 %41 to i64
  %43 = getelementptr inbounds float, ptr %22, i64 %42
  store float %39, ptr %43, align 4, !tbaa !57
  %indvars.iv.next = add nsw i64 %indvars.iv, 1
  %exitcond.not = icmp eq i64 %indvars.iv.next, %wide.trip.count
  br i1 %exitcond.not, label %.lr.ph82, label %29, !llvm.loop !83

._crit_edge:                                      ; preds = %49, %9
  %44 = sub nsw i32 %14, %.06988
  %45 = getelementptr inbounds nuw [2 x i32], ptr %7, i64 %indvars.iv105
  store i32 %44, ptr %45, align 4, !tbaa !55
  %46 = sub nsw i32 %., %.06988
  %47 = getelementptr inbounds nuw [2 x i32], ptr %7, i64 %indvars.iv105, i64 1
  store i32 %46, ptr %47, align 4, !tbaa !55
  %48 = icmp slt i32 %.06988, 2
  br i1 %48, label %61, label %56

49:                                               ; preds = %.lr.ph82, %49
  %indvars.iv95 = phi i64 [ %28, %.lr.ph82 ], [ %indvars.iv.next96, %49 ]
  %50 = trunc nsw i64 %indvars.iv95 to i32
  %51 = add i32 %.reass80, %50
  %52 = sext i32 %51 to i64
  %53 = getelementptr inbounds float, ptr %26, i64 %52
  %54 = load float, ptr %53, align 4, !tbaa !57
  %55 = fdiv nsz float %54, %40
  store float %55, ptr %53, align 4, !tbaa !57
  %indvars.iv.next96 = add nsw i64 %indvars.iv95, 1
  %exitcond99.not = icmp eq i64 %indvars.iv.next96, %wide.trip.count98
  br i1 %exitcond99.not, label %._crit_edge, label %49, !llvm.loop !84

56:                                               ; preds = %._crit_edge
  %57 = tail call range(i32 1, 32) i32 @llvm.ctpop.i32(i32 %.06988)
  %58 = icmp samesign ult i32 %57, 2
  %59 = lshr i32 %.06988, 1
  %spec.select = select i1 %58, i32 %59, i32 %.07087
  %60 = add nuw nsw i32 %spec.select, %.06988
  br label %61

61:                                               ; preds = %._crit_edge, %56
  %.1 = phi i32 [ %spec.select, %56 ], [ %.07087, %._crit_edge ]
  %.068 = phi i32 [ %60, %56 ], [ %15, %._crit_edge ]
  %62 = icmp slt i32 %.06988, %.068
  br i1 %62, label %.lr.ph85, label %._crit_edge86

.lr.ph85:                                         ; preds = %61
  %63 = load ptr, ptr %8, align 8, !tbaa !77
  %64 = sext i32 %.06988 to i64
  %wide.trip.count103 = sext i32 %.068 to i64
  br label %67

._crit_edge86:                                    ; preds = %67, %61
  %indvars.iv.next106 = add nuw nsw i64 %indvars.iv105, 1
  %.069.neg = sub i32 0, %.068
  %65 = load i32, ptr %2, align 8, !tbaa !61
  %66 = icmp slt i32 %.068, %65
  br i1 %66, label %9, label %._crit_edge93, !llvm.loop !85

67:                                               ; preds = %.lr.ph85, %67
  %indvars.iv100 = phi i64 [ %64, %.lr.ph85 ], [ %indvars.iv.next101, %67 ]
  %68 = getelementptr inbounds i32, ptr %63, i64 %indvars.iv100
  store i32 %11, ptr %68, align 4, !tbaa !55
  %indvars.iv.next101 = add nsw i64 %indvars.iv100, 1
  %exitcond104.not = icmp eq i64 %indvars.iv.next101, %wide.trip.count103
  br i1 %exitcond104.not, label %._crit_edge86, label %67, !llvm.loop !86

._crit_edge93:                                    ; preds = %._crit_edge86, %1
  ret void
}